target datalayout = "e-m:e-p270:32:32-p271:32:32-p272:64:64-i64:64-i128:128-f80:128-n8:16:32:64-S128"
target triple = "x86_64-pc-linux-gnu"

@.str.2 = private unnamed_addr constant [5 x i8] c"tmp.\00", align 1
@.str.3 = private unnamed_addr constant [49 x i8] c"file created in the system's temporary directory\00", align 1

; Function Attrs: nounwind uwtable
define i32 @php_open_temporary_fd_ex(ptr noundef %0, ptr noundef %1, ptr noundef %2, i32 noundef %3) #0 {
  %5 = alloca i32, align 4
  %6 = alloca ptr, align 8
  %7 = alloca ptr, align 8
  %8 = alloca ptr, align 8
  %9 = alloca i32, align 4
  %10 = alloca i32, align 4
  %11 = alloca ptr, align 8
  store ptr %0, ptr %6, align 8
  store ptr %1, ptr %7, align 8
  store ptr %2, ptr %8, align 8
  store i32 %3, ptr %9, align 4
  %12 = load ptr, ptr %7, align 8
  %13 = icmp ne ptr %12, null
  br i1 %13, label %15, label %14

14:                                               ; preds = %4
  store ptr @.str.2, ptr %7, align 8
  br label %15

15:                                               ; preds = %14, %4
  %16 = load ptr, ptr %8, align 8
  %17 = icmp ne ptr %16, null
  br i1 %17, label %18, label %20

18:                                               ; preds = %15
  %19 = load ptr, ptr %8, align 8
  store ptr null, ptr %19, align 8
  br label %20

20:                                               ; preds = %18, %15
  %21 = load ptr, ptr %6, align 8
  %22 = icmp ne ptr %21, null
  br i1 %22, label %23, label %28

23:                                               ; preds = %20
  %24 = load ptr, ptr %6, align 8
  %25 = load i8, ptr %24, align 1
  %26 = sext i8 %25 to i32
  %27 = icmp eq i32 %26, 0
  br i1 %27, label %28, label %52

28:                                               ; preds = %23, %20
  br label %29

29:                                               ; preds = %73, %28
  %30 = call ptr @php_get_temporary_directory()
  store ptr %30, ptr %11, align 8
  %31 = load ptr, ptr %11, align 8
  %32 = icmp ne ptr %31, null
  br i1 %32, label %33, label %51

33:                                               ; preds = %29
  %34 = load ptr, ptr %11, align 8
  %35 = load i8, ptr %34, align 1
  %36 = sext i8 %35 to i32
  %37 = icmp ne i32 %36, 0
  br i1 %37, label %38, label %51

38:                                               ; preds = %33
  %39 = load i32, ptr %9, align 4
  %40 = and i32 %39, 1
  %41 = icmp ne i32 %40, 0
  br i1 %41, label %42, label %46

42:                                               ; preds = %38
  %43 = load ptr, ptr %11, align 8
  %44 = call i32 @php_check_open_basedir(ptr noundef %43)
  %45 = icmp ne i32 %44, 0
  br i1 %45, label %51, label %46

46:                                               ; preds = %42, %38
  %47 = load ptr, ptr %11, align 8
  %48 = load ptr, ptr %7, align 8
  %49 = load ptr, ptr %8, align 8
  %50 = call i32 @php_do_open_temporary_file(ptr noundef %47, ptr noundef %48, ptr noundef %49)
  store i32 %50, ptr %5, align 4
  br label %76

51:                                               ; preds = %42, %33, %29
  store i32 -1, ptr %5, align 4
  br label %76

52:                                               ; preds = %23
  %53 = load i32, ptr %9, align 4
  %54 = and i32 %53, 4
  %55 = icmp ne i32 %54, 0
  br i1 %55, label %56, label %61

56:                                               ; preds = %52
  %57 = load ptr, ptr %6, align 8
  %58 = call i32 @php_check_open_basedir(ptr noundef %57)
  %59 = icmp ne i32 %58, 0
  br i1 %59, label %60, label %61

60:                                               ; preds = %56
  store i32 -1, ptr %5, align 4
  br label %76

61:                                               ; preds = %56, %52
  %62 = load ptr, ptr %6, align 8
  %63 = load ptr, ptr %7, align 8
  %64 = load ptr, ptr %8, align 8
  %65 = call i32 @php_do_open_temporary_file(ptr noundef %62, ptr noundef %63, ptr noundef %64)
  store i32 %65, ptr %10, align 4
  %66 = load i32, ptr %10, align 4
  %67 = icmp eq i32 %66, -1
  br i1 %67, label %68, label %74

68:                                               ; preds = %61
  %69 = load i32, ptr %9, align 4
  %70 = and i32 %69, 2
  %71 = icmp ne i32 %70, 0
  br i1 %71, label %73, label %72

72:                                               ; preds = %68
  call void (ptr, i32, ptr, ...) @php_error_docref(ptr noundef null, i32 noundef 8, ptr noundef @.str.3)
  br label %73

73:                                               ; preds = %72, %68
  br label %29

74:                                               ; preds = %61
  %75 = load i32, ptr %10, align 4
  store i32 %75, ptr %5, align 4
  br label %76

76:                                               ; preds = %74, %60, %51, %46
  %77 = load i32, ptr %5, align 4
  ret i32 %77
}

; Function Attrs: nounwind uwtable
define i32 @php_open_temporary_fd(ptr noundef %0, ptr noundef %1, ptr noundef %2) #0 {
  %4 = alloca ptr, align 8
  %5 = alloca ptr, align 8
  %6 = alloca ptr, align 8
  store ptr %0, ptr %4, align 8
  store ptr %1, ptr %5, align 8
  store ptr %2, ptr %6, align 8
  %7 = load ptr, ptr %4, align 8
  %8 = load ptr, ptr %5, align 8
  %9 = load ptr, ptr %6, align 8
  %10 = call i32 @php_open_temporary_fd_ex(ptr noundef %7, ptr noundef %8, ptr noundef %9, i32 noundef 0)
  ret i32 %10
}