; Function Attrs: nounwind uwtable
define i32 @php_open_temporary_fd(ptr noundef %0, ptr noundef %1, ptr noundef %2) local_unnamed_addr #0 {
  %.not.i = icmp eq ptr %1, null
  %spec.store.select.i = select i1 %.not.i, ptr @.str.2, ptr %1
  %.not24.i = icmp eq ptr %2, null
  br i1 %.not24.i, label %5, label %4

4:                                                ; preds = %3
  store ptr null, ptr %2, align 8
  br label %5

5:                                                ; preds = %4, %3
  %.not25.i = icmp eq ptr %0, null
  br i1 %.not25.i, label %9, label %6

6:                                                ; preds = %5
  %7 = load i8, ptr %0, align 1
  %8 = icmp eq i8 %7, 0
  br i1 %8, label %9, label %15

9:                                                ; preds = %18, %6, %5
  %10 = tail call ptr @php_get_temporary_directory()
  %.not29.i = icmp eq ptr %10, null
  br i1 %.not29.i, label %php_open_temporary_fd_ex.exit, label %11

11:                                               ; preds = %9
  %12 = load i8, ptr %10, align 1
  %.not30.i = icmp eq i8 %12, 0
  br i1 %.not30.i, label %php_open_temporary_fd_ex.exit, label %13

13:                                               ; preds = %11
  %14 = tail call fastcc i32 @php_do_open_temporary_file(ptr noundef nonnull %10, ptr noundef nonnull %spec.store.select.i, ptr noundef %2)
  br label %php_open_temporary_fd_ex.exit

15:                                               ; preds = %6
  %16 = tail call fastcc i32 @php_do_open_temporary_file(ptr noundef nonnull %0, ptr noundef nonnull %spec.store.select.i, ptr noundef %2)
  %17 = icmp eq i32 %16, -1
  br i1 %17, label %18, label %php_open_temporary_fd_ex.exit

18:                                               ; preds = %15
  tail call void (ptr, i32, ptr, ...) @php_error_docref(ptr noundef null, i32 noundef 8, ptr noundef nonnull @.str.3) #9
  br label %9

php_open_temporary_fd_ex.exit:                    ; preds = %9, %11, %13, %15
  %.0.i = phi i32 [ %14, %13 ], [ -1, %11 ], [ -1, %9 ], [ %16, %15 ]
  ret i32 %.0.i
}